target datalayout = "e-m:e-p270:32:32-p271:32:32-p272:64:64-i64:64-i128:128-f80:128-n8:16:32:64-S128"
target triple = "x86_64-pc-linux-gnu"

%struct.ossl_algorithm_st = type { ptr, ptr, ptr, ptr }

@.str = private unnamed_addr constant [35 x i8] c"../openssl/crypto/core_algorithm.c\00", align 1

; Function Attrs: nounwind uwtable
define ptr @ossl_algorithm_get1_first_name(ptr noundef %0) #0 {
  %2 = alloca ptr, align 8
  %3 = alloca ptr, align 8
  %4 = alloca ptr, align 8
  %5 = alloca i64, align 8
  %6 = alloca ptr, align 8
  %7 = alloca i32, align 4
  store ptr %0, ptr %3, align 8, !tbaa !24
  call void @llvm.lifetime.start.p0(i64 8, ptr %4) #6
  store ptr null, ptr %4, align 8, !tbaa !28
  call void @llvm.lifetime.start.p0(i64 8, ptr %5) #6
  store i64 0, ptr %5, align 8, !tbaa !30
  call void @llvm.lifetime.start.p0(i64 8, ptr %6) #6
  %8 = load ptr, ptr %3, align 8, !tbaa !24
  %9 = getelementptr inbounds nuw %struct.ossl_algorithm_st, ptr %8, i32 0, i32 0
  %10 = load ptr, ptr %9, align 8, !tbaa !32
  %11 = icmp eq ptr %10, null
  br i1 %11, label %12, label %13

12:                                               ; preds = %1
  store ptr null, ptr %2, align 8
  store i32 1, ptr %7, align 4
  br label %40

13:                                               ; preds = %1
  %14 = load ptr, ptr %3, align 8, !tbaa !24
  %15 = getelementptr inbounds nuw %struct.ossl_algorithm_st, ptr %14, i32 0, i32 0
  %16 = load ptr, ptr %15, align 8, !tbaa !32
  %17 = call ptr @strchr(ptr noundef %16, i32 noundef 58) #7
  store ptr %17, ptr %4, align 8, !tbaa !28
  %18 = load ptr, ptr %4, align 8, !tbaa !28
  %19 = icmp eq ptr %18, null
  br i1 %19, label %20, label %25

20:                                               ; preds = %13
  %21 = load ptr, ptr %3, align 8, !tbaa !24
  %22 = getelementptr inbounds nuw %struct.ossl_algorithm_st, ptr %21, i32 0, i32 0
  %23 = load ptr, ptr %22, align 8, !tbaa !32
  %24 = call i64 @strlen(ptr noundef %23) #7
  store i64 %24, ptr %5, align 8, !tbaa !30
  br label %33

25:                                               ; preds = %13
  %26 = load ptr, ptr %4, align 8, !tbaa !28
  %27 = load ptr, ptr %3, align 8, !tbaa !24
  %28 = getelementptr inbounds nuw %struct.ossl_algorithm_st, ptr %27, i32 0, i32 0
  %29 = load ptr, ptr %28, align 8, !tbaa !32
  %30 = ptrtoint ptr %26 to i64
  %31 = ptrtoint ptr %29 to i64
  %32 = sub i64 %30, %31
  store i64 %32, ptr %5, align 8, !tbaa !30
  br label %33

33:                                               ; preds = %25, %20
  %34 = load ptr, ptr %3, align 8, !tbaa !24
  %35 = getelementptr inbounds nuw %struct.ossl_algorithm_st, ptr %34, i32 0, i32 0
  %36 = load ptr, ptr %35, align 8, !tbaa !32
  %37 = load i64, ptr %5, align 8, !tbaa !30
  %38 = call noalias ptr @CRYPTO_strndup(ptr noundef %36, i64 noundef %37, ptr noundef @.str, i32 noundef 195)
  store ptr %38, ptr %6, align 8, !tbaa !28
  %39 = load ptr, ptr %6, align 8, !tbaa !28
  store ptr %39, ptr %2, align 8
  store i32 1, ptr %7, align 4
  br label %40

40:                                               ; preds = %33, %12
  call void @llvm.lifetime.end.p0(i64 8, ptr %6) #6
  call void @llvm.lifetime.end.p0(i64 8, ptr %5) #6
  call void @llvm.lifetime.end.p0(i64 8, ptr %4) #6
  %41 = load ptr, ptr %2, align 8
  ret ptr %41
}