; Function Attrs: nounwind uwtable
define noalias ptr @ossl_algorithm_get1_first_name(ptr noundef readonly captures(none) %0) local_unnamed_addr #0 {
  %2 = load ptr, ptr %0, align 8, !tbaa !19
  %3 = icmp eq ptr %2, null
  br i1 %3, label %15, label %4

4:                                                ; preds = %1
  %5 = tail call ptr @strchr(ptr noundef nonnull dereferenceable(1) %2, i32 noundef 58) #6
  %6 = icmp eq ptr %5, null
  br i1 %6, label %7, label %9

7:                                                ; preds = %4
  %8 = tail call i64 @strlen(ptr noundef nonnull dereferenceable(1) %2) #6
  br label %13

9:                                                ; preds = %4
  %10 = ptrtoint ptr %5 to i64
  %11 = ptrtoint ptr %2 to i64
  %12 = sub i64 %10, %11
  br label %13

13:                                               ; preds = %9, %7
  %.09 = phi i64 [ %8, %7 ], [ %12, %9 ]
  %14 = tail call noalias ptr @CRYPTO_strndup(ptr noundef nonnull %2, i64 noundef %.09, ptr noundef nonnull @.str, i32 noundef 195) #5
  br label %15

15:                                               ; preds = %1, %13
  %.0 = phi ptr [ %14, %13 ], [ null, %1 ]
  ret ptr %.0
}